target datalayout = "e-m:e-p270:32:32-p271:32:32-p272:64:64-i64:64-i128:128-f80:128-n8:16:32:64-S128"
target triple = "x86_64-pc-linux-gnu"

%struct.grpc_event_engine_vtable = type { i64, i8, i8, ptr, ptr, ptr, ptr, ptr, ptr, ptr, ptr, ptr, ptr, ptr, ptr, ptr, ptr, ptr, ptr, ptr, ptr, ptr, ptr, ptr, ptr, ptr, ptr, ptr, ptr, ptr, ptr, ptr, ptr, ptr, ptr, ptr }

@_ZL14g_event_engine = internal global ptr null, align 8

; Function Attrs: mustprogress uwtable
define noundef zeroext i1 @_Z34grpc_event_engine_can_track_errorsv() #7 {
  %1 = call noundef zeroext i1 @_ZN9grpc_core22KernelSupportsErrqueueEv()
  br i1 %1, label %2, label %7

2:                                                ; preds = %0
  %3 = load ptr, ptr @_ZL14g_event_engine, align 8, !tbaa !3
  %4 = getelementptr inbounds nuw %struct.grpc_event_engine_vtable, ptr %3, i32 0, i32 1
  %5 = load i8, ptr %4, align 8, !tbaa !25, !range !20, !noundef !21
  %6 = trunc i8 %5 to i1
  br label %7

7:                                                ; preds = %2, %0
  %8 = phi i1 [ false, %0 ], [ %6, %2 ]
  ret i1 %8
}

; Function Attrs: mustprogress uwtable
define noundef ptr @_Z14grpc_fd_createiPKcb(i32 noundef %0, ptr noundef %1, i1 noundef zeroext %2) #7 {
  %4 = alloca i32, align 4
  %5 = alloca ptr, align 8
  %6 = alloca i8, align 1
  store i32 %0, ptr %4, align 4, !tbaa !27
  store ptr %1, ptr %5, align 8, !tbaa !29
  %7 = zext i1 %2 to i8
  store i8 %7, ptr %6, align 1, !tbaa !8
  %8 = load ptr, ptr @_ZL14g_event_engine, align 8, !tbaa !3
  %9 = getelementptr inbounds nuw %struct.grpc_event_engine_vtable, ptr %8, i32 0, i32 3
  %10 = load ptr, ptr %9, align 8, !tbaa !30
  %11 = load i32, ptr %4, align 4, !tbaa !27
  %12 = load ptr, ptr %5, align 8, !tbaa !29
  %13 = load i8, ptr %6, align 1, !tbaa !8, !range !20, !noundef !21
  %14 = trunc i8 %13 to i1
  br i1 %14, label %15, label %17

15:                                               ; preds = %3
  %16 = call noundef zeroext i1 @_Z34grpc_event_engine_can_track_errorsv()
  br label %17

17:                                               ; preds = %15, %3
  %18 = phi i1 [ false, %3 ], [ %16, %15 ]
  %19 = call noundef ptr %10(i32 noundef %11, ptr noundef %12, i1 noundef zeroext %18)
  ret ptr %19
}