; Function Attrs: mustprogress uwtable
define noundef ptr @_Z14grpc_fd_createiPKcb(i32 noundef %0, ptr noundef %1, i1 noundef zeroext %2) local_unnamed_addr #7 {
  %4 = load ptr, ptr @_ZL14g_event_engine, align 8, !tbaa !3
  %5 = getelementptr inbounds nuw i8, ptr %4, i64 16
  %6 = load ptr, ptr %5, align 8, !tbaa !21
  br i1 %2, label %7, label %_Z34grpc_event_engine_can_track_errorsv.exit

7:                                                ; preds = %3
  %8 = tail call noundef zeroext i1 @_ZN9grpc_core22KernelSupportsErrqueueEv()
  br i1 %8, label %9, label %_Z34grpc_event_engine_can_track_errorsv.exit

9:                                                ; preds = %7
  %10 = load ptr, ptr @_ZL14g_event_engine, align 8, !tbaa !3
  %11 = getelementptr inbounds nuw i8, ptr %10, i64 8
  %12 = load i8, ptr %11, align 8, !tbaa !17, !range !18, !noundef !19
  %13 = trunc nuw i8 %12 to i1
  br label %_Z34grpc_event_engine_can_track_errorsv.exit

_Z34grpc_event_engine_can_track_errorsv.exit:     ; preds = %9, %7, %3
  %14 = phi i1 [ false, %3 ], [ false, %7 ], [ %13, %9 ]
  %15 = tail call noundef ptr %6(i32 noundef %0, ptr noundef %1, i1 noundef zeroext %14)
  ret ptr %15
}